(i__main__
LogFile
p0
(dp1
S'_installed_files'
p2
(dp3
S'../../../DatabaseSvc/Linux-x86_64/libDatabaseSvc.so'
p4
S'../../InstallArea/Linux-x86_64/lib/libDatabaseSvc.so'
p5
sS'../../DatabaseSvc/DatabaseSvc'
p6
(dp7
S'../../../DatabaseSvc/DatabaseSvc/IQuery.h'
p8
S'../../InstallArea/include/DatabaseSvc/IQuery.h'
p9
sssb.